; Function Attrs: mustprogress uwtable
define hidden void @_ZN4LIEF12MemoryStreamC2Emm(ptr noundef nonnull align 8 dereferenceable(48) %0, i64 noundef %1, i64 noundef %2) unnamed_addr #5 align 2 personality ptr @__gxx_personality_v0 {
  %4 = alloca %"struct.spdlog::source_loc", align 8
  %5 = alloca i64, align 8
  store i64 %1, ptr %5, align 8
  tail call void @_ZN4LIEF12BinaryStreamC2Ev(ptr noundef nonnull align 8 dereferenceable(24) %0)
  store ptr getelementptr inbounds ({ [15 x ptr] }, ptr @_ZTVN4LIEF12MemoryStreamE, i64 0, i32 0, i64 2), ptr %0, align 8
  %6 = getelementptr inbounds i8, ptr %0, i64 24
  store i64 %1, ptr %6, align 8
  %7 = getelementptr inbounds i8, ptr %0, i64 32
  store i64 %2, ptr %7, align 8
  %8 = getelementptr inbounds i8, ptr %0, i64 40
  store ptr null, ptr %8, align 8
  %9 = invoke noundef nonnull align 8 dereferenceable(16) ptr @_ZN4LIEF7logging6Logger8instanceEv()
          to label %.noexc unwind label %13

.noexc:                                           ; preds = %3
  %10 = load ptr, ptr %9, align 8
  call void @llvm.lifetime.start.p0(i64 24, ptr nonnull %4)
  call void @llvm.memset.p0.i64(ptr noundef nonnull align 8 dereferenceable(24) %4, i8 0, i64 24, i1 false)
  invoke void @_ZN6spdlog6logger4log_IJRKmEEEvNS_10source_locENS_5level10level_enumEN3fmt2v917basic_string_viewIcEEDpOT_(ptr noundef nonnull align 8 dereferenceable(208) %10, ptr noundef nonnull byval(%"struct.spdlog::source_loc") align 8 %4, i32 noundef 1, ptr nonnull @.str, i64 30, ptr noundef nonnull align 8 dereferenceable(8) %5)
          to label %11 unwind label %13

11:                                               ; preds = %.noexc
  call void @llvm.lifetime.end.p0(i64 24, ptr nonnull %4)
  %12 = getelementptr inbounds i8, ptr %0, i64 20
  store i32 2, ptr %12, align 4
  ret void

13:                                               ; preds = %.noexc, %3
  %14 = landingpad { ptr, i32 }
          cleanup
  call void @_ZN4LIEF12BinaryStreamD2Ev(ptr noundef nonnull align 8 dereferenceable(24) %0) #21
  resume { ptr, i32 } %14
}